target datalayout = "e-m:e-p270:32:32-p271:32:32-p272:64:64-i64:64-i128:128-f80:128-n8:16:32:64-S128"
target triple = "x86_64-pc-linux-gnu"

%"struct.boost::source_location" = type { ptr, ptr, i32, i32 }
%"class.boost::core::basic_string_view" = type { ptr, i64 }

@.str = private unnamed_addr constant [119 x i8] c"generated/home/dtcxzyw/WorkSpace/Projects/compilers/llvm-opt-benchmark/bench/boost/boost/libs/url/src/ipv6_address.cpp\00", align 1
@.str.2 = private unnamed_addr constant [10 x i8] c"to_buffer\00", align 1

; Function Attrs: mustprogress nounwind uwtable
define linkonce_odr hidden void @_ZN5boost4core17basic_string_viewIcEC2EPKcm(ptr noundef nonnull align 8 dereferenceable(16) %0, ptr noundef %1, i64 noundef %2) unnamed_addr #2 comdat align 2 {
  %4 = alloca ptr, align 8
  %5 = alloca ptr, align 8
  %6 = alloca i64, align 8
  store ptr %0, ptr %4, align 8, !tbaa !7
  store ptr %1, ptr %5, align 8, !tbaa !7
  store i64 %2, ptr %6, align 8, !tbaa !17
  %7 = load ptr, ptr %4, align 8
  %8 = getelementptr inbounds nuw %"class.boost::core::basic_string_view", ptr %7, i32 0, i32 0
  %9 = load ptr, ptr %5, align 8, !tbaa !7
  store ptr %9, ptr %8, align 8, !tbaa !35
  %10 = getelementptr inbounds nuw %"class.boost::core::basic_string_view", ptr %7, i32 0, i32 1
  %11 = load i64, ptr %6, align 8, !tbaa !17
  store i64 %11, ptr %10, align 8, !tbaa !37
  ret void
}

; Function Attrs: mustprogress nounwind uwtable
define linkonce_odr hidden void @_ZN5boost15source_locationC2EPKcjS2_j(ptr noundef nonnull align 8 dereferenceable(24) %0, ptr noundef %1, i32 noundef %2, ptr noundef %3, i32 noundef %4) unnamed_addr #2 comdat align 2 {
  %6 = alloca ptr, align 8
  %7 = alloca ptr, align 8
  %8 = alloca i32, align 4
  %9 = alloca ptr, align 8
  %10 = alloca i32, align 4
  store ptr %0, ptr %6, align 8, !tbaa !7
  store ptr %1, ptr %7, align 8, !tbaa !7
  store i32 %2, ptr %8, align 4, !tbaa !3
  store ptr %3, ptr %9, align 8, !tbaa !7
  store i32 %4, ptr %10, align 4, !tbaa !3
  %11 = load ptr, ptr %6, align 8
  %12 = getelementptr inbounds nuw %"struct.boost::source_location", ptr %11, i32 0, i32 0
  %13 = load ptr, ptr %7, align 8, !tbaa !7
  store ptr %13, ptr %12, align 8, !tbaa !21
  %14 = getelementptr inbounds nuw %"struct.boost::source_location", ptr %11, i32 0, i32 1
  %15 = load ptr, ptr %9, align 8, !tbaa !7
  store ptr %15, ptr %14, align 8, !tbaa !23
  %16 = getelementptr inbounds nuw %"struct.boost::source_location", ptr %11, i32 0, i32 2
  %17 = load i32, ptr %8, align 4, !tbaa !3
  store i32 %17, ptr %16, align 8, !tbaa !24
  %18 = getelementptr inbounds nuw %"struct.boost::source_location", ptr %11, i32 0, i32 3
  %19 = load i32, ptr %10, align 4, !tbaa !3
  store i32 %19, ptr %18, align 4, !tbaa !25
  ret void
}

; Function Attrs: mustprogress uwtable
define { ptr, i64 } @_ZNK5boost4urls12ipv6_address9to_bufferEPcm(ptr noundef nonnull align 1 dereferenceable(16) %0, ptr noundef %1, i64 noundef %2) #5 align 2 {
  %4 = alloca %"class.boost::core::basic_string_view", align 8
  %5 = alloca ptr, align 8
  %6 = alloca ptr, align 8
  %7 = alloca i64, align 8
  %8 = alloca %"struct.boost::source_location", align 8
  %9 = alloca i64, align 8
  store ptr %0, ptr %5, align 8, !tbaa !7
  store ptr %1, ptr %6, align 8, !tbaa !7
  store i64 %2, ptr %7, align 8, !tbaa !17
  %10 = load ptr, ptr %5, align 8
  %11 = load i64, ptr %7, align 8, !tbaa !17
  %12 = icmp ult i64 %11, 49
  br i1 %12, label %13, label %14

13:                                               ; preds = %3
  call void @llvm.lifetime.start.p0(i64 24, ptr %8) #16
  call void @_ZN5boost15source_locationC2EPKcjS2_j(ptr noundef nonnull align 8 dereferenceable(24) %8, ptr noundef @.str, i32 noundef 57, ptr noundef @.str.2, i32 noundef 9) #16
  call void @_ZN5boost4urls6detail18throw_length_errorERKNS_15source_locationE(ptr noundef nonnull align 8 dereferenceable(24) %8) #18
  unreachable

14:                                               ; preds = %3
  call void @llvm.lifetime.start.p0(i64 8, ptr %9) #16
  %15 = load ptr, ptr %6, align 8, !tbaa !7
  %16 = call noundef i64 @_ZNK5boost4urls12ipv6_address10print_implEPc(ptr noundef nonnull align 1 dereferenceable(16) %10, ptr noundef %15) #16
  store i64 %16, ptr %9, align 8, !tbaa !17
  %17 = load ptr, ptr %6, align 8, !tbaa !7
  %18 = load i64, ptr %9, align 8, !tbaa !17
  call void @_ZN5boost4core17basic_string_viewIcEC2EPKcm(ptr noundef nonnull align 8 dereferenceable(16) %4, ptr noundef %17, i64 noundef %18) #16
  call void @llvm.lifetime.end.p0(i64 8, ptr %9) #16
  %19 = load { ptr, i64 }, ptr %4, align 8
  ret { ptr, i64 } %19
}