; Function Attrs: mustprogress uwtable
define { ptr, i64 } @_ZNK5boost4urls12ipv6_address9to_bufferEPcm(ptr noundef nonnull align 1 dereferenceable(16) %0, ptr noundef %1, i64 noundef %2) local_unnamed_addr #5 align 2 {
  %4 = alloca %"struct.boost::source_location", align 8
  %5 = icmp ult i64 %2, 49
  br i1 %5, label %6, label %10

6:                                                ; preds = %3
  call void @llvm.lifetime.start.p0(i64 24, ptr nonnull %4) #23
  store ptr @.str, ptr %4, align 8, !tbaa !30
  %7 = getelementptr inbounds nuw i8, ptr %4, i64 8
  store ptr @.str.2, ptr %7, align 8, !tbaa !32
  %8 = getelementptr inbounds nuw i8, ptr %4, i64 16
  store i32 57, ptr %8, align 8, !tbaa !33
  %9 = getelementptr inbounds nuw i8, ptr %4, i64 20
  store i32 9, ptr %9, align 4, !tbaa !34
  call void @_ZN5boost4urls6detail18throw_length_errorERKNS_15source_locationE(ptr noundef nonnull align 8 dereferenceable(24) %4) #24
  unreachable

10:                                               ; preds = %3
  %11 = tail call noundef i64 @_ZNK5boost4urls12ipv6_address10print_implEPc(ptr noundef nonnull align 1 dereferenceable(16) %0, ptr noundef %1) #23
  %.fca.0.insert = insertvalue { ptr, i64 } poison, ptr %1, 0
  %.fca.1.insert = insertvalue { ptr, i64 } %.fca.0.insert, i64 %11, 1
  ret { ptr, i64 } %.fca.1.insert
}